(lp0
(imodule_cars
ElectricCarClass
p1
(dp2
S'make'
p3
S'tesla'
p4
sS'vin'
p5
S'place 17-alphanumeric VIN numbere here'
p6
sS'odometer'
p7
I60
sS'battery_size'
p8
I70
sS'year'
p9
I2015
sS'model'
p10
S'model s'
p11
sS'charge_percent'
p12
I50
sS'gaslevel'
p13
S'n/a'
p14
sba(imodule_cars
CarClass
p15
(dp16
g3
S'nissan'
p17
sg5
S'XXXXXXXXXXXXXXXXX'
p18
sg7
I15
sg9
I1995
sg10
S'180sx'
p19
sg13
I0
sba.